; Function Attrs: mustprogress nofree norecurse nosync nounwind willreturn memory(argmem: read) uwtable
define range(i64 0, 4294967296) i64 @Cudd_zddReadNodeCount(ptr noundef readonly captures(none) %0) local_unnamed_addr #8 {
  %2 = getelementptr inbounds nuw i8, ptr %0, i64 232
  %3 = load i32, ptr %2, align 8
  %4 = getelementptr inbounds nuw i8, ptr %0, i64 240
  %5 = load i32, ptr %4, align 8
  %6 = add i32 %3, 2
  %7 = sub i32 %6, %5
  %8 = zext i32 %7 to i64
  ret i64 %8
}